target datalayout = "e-m:e-p270:32:32-p271:32:32-p272:64:64-i64:64-i128:128-f80:128-n8:16:32:64-S128"
target triple = "x86_64-pc-linux-gnu"

%struct.PageHeaderData = type { %struct.PageXLogRecPtr, i16, i16, i16, i16, i16, i16, i32, [0 x %struct.ItemIdData] }
%struct.PageXLogRecPtr = type { i32, i32 }
%struct.ItemIdData = type { i32 }
%struct.GinPageOpaqueData = type { i32, i16, i16 }

; Function Attrs: nounwind uwtable
define internal ptr @dataLeafPageGetUncompressed(ptr noundef %0, ptr noundef %1) #0 {
  %3 = alloca ptr, align 8
  %4 = alloca ptr, align 8
  %5 = alloca ptr, align 8
  store ptr %0, ptr %3, align 8
  store ptr %1, ptr %4, align 8
  call void @llvm.lifetime.start.p0(i64 8, ptr %5) #7
  %6 = load ptr, ptr %3, align 8
  %7 = call ptr @PageGetContents(ptr noundef %6)
  %8 = getelementptr inbounds nuw i8, ptr %7, i64 8
  store ptr %8, ptr %5, align 8
  %9 = load ptr, ptr %3, align 8
  call void @PageValidateSpecialPointer(ptr noundef %9)
  %10 = load ptr, ptr %3, align 8
  %11 = load ptr, ptr %3, align 8
  %12 = getelementptr inbounds nuw %struct.PageHeaderData, ptr %11, i32 0, i32 5
  %13 = load i16, ptr %12, align 4
  %14 = zext i16 %13 to i32
  %15 = sext i32 %14 to i64
  %16 = getelementptr inbounds i8, ptr %10, i64 %15
  %17 = getelementptr inbounds nuw %struct.GinPageOpaqueData, ptr %16, i32 0, i32 1
  %18 = load i16, ptr %17, align 4
  %19 = zext i16 %18 to i32
  %20 = load ptr, ptr %4, align 8
  store i32 %19, ptr %20, align 4
  %21 = load ptr, ptr %5, align 8
  call void @llvm.lifetime.end.p0(i64 8, ptr %5) #7
  ret ptr %21
}

; Function Attrs: inlinehint nounwind uwtable
define internal ptr @PageGetContents(ptr noundef %0) #2 {
  %2 = alloca ptr, align 8
  store ptr %0, ptr %2, align 8
  %3 = load ptr, ptr %2, align 8
  %4 = getelementptr inbounds nuw i8, ptr %3, i64 24
  ret ptr %4
}

; Function Attrs: inlinehint nounwind uwtable
define internal void @PageValidateSpecialPointer(ptr noundef %0) #2 {
  %2 = alloca ptr, align 8
  store ptr %0, ptr %2, align 8
  ret void
}

; Function Attrs: nounwind uwtable
define dso_local i32 @GinDataLeafPageGetItemsToTbm(ptr noundef %0, ptr noundef %1) #0 {
  %3 = alloca ptr, align 8
  %4 = alloca ptr, align 8
  %5 = alloca ptr, align 8
  %6 = alloca i32, align 4
  %7 = alloca ptr, align 8
  %8 = alloca i64, align 8
  store ptr %0, ptr %3, align 8
  store ptr %1, ptr %4, align 8
  call void @llvm.lifetime.start.p0(i64 8, ptr %5) #7
  call void @llvm.lifetime.start.p0(i64 4, ptr %6) #7
  %9 = load ptr, ptr %3, align 8
  call void @PageValidateSpecialPointer(ptr noundef %9)
  %10 = load ptr, ptr %3, align 8
  %11 = load ptr, ptr %3, align 8
  %12 = getelementptr inbounds nuw %struct.PageHeaderData, ptr %11, i32 0, i32 5
  %13 = load i16, ptr %12, align 4
  %14 = zext i16 %13 to i32
  %15 = sext i32 %14 to i64
  %16 = getelementptr inbounds i8, ptr %10, i64 %15
  %17 = getelementptr inbounds nuw %struct.GinPageOpaqueData, ptr %16, i32 0, i32 2
  %18 = load i16, ptr %17, align 2
  %19 = zext i16 %18 to i32
  %20 = and i32 %19, 128
  %21 = icmp ne i32 %20, 0
  br i1 %21, label %22, label %37

22:                                               ; preds = %2
  call void @llvm.lifetime.start.p0(i64 8, ptr %7) #7
  %23 = load ptr, ptr %3, align 8
  %24 = call ptr @PageGetContents(ptr noundef %23)
  %25 = getelementptr inbounds nuw i8, ptr %24, i64 8
  store ptr %25, ptr %7, align 8
  call void @llvm.lifetime.start.p0(i64 8, ptr %8) #7
  %26 = load ptr, ptr %3, align 8
  %27 = getelementptr inbounds nuw %struct.PageHeaderData, ptr %26, i32 0, i32 3
  %28 = load i16, ptr %27, align 4
  %29 = zext i16 %28 to i64
  %30 = sub i64 %29, 24
  %31 = sub i64 %30, 8
  store i64 %31, ptr %8, align 8
  %32 = load ptr, ptr %7, align 8
  %33 = load i64, ptr %8, align 8
  %34 = trunc i64 %33 to i32
  %35 = load ptr, ptr %4, align 8
  %36 = call i32 @ginPostingListDecodeAllSegmentsToTbm(ptr noundef %32, i32 noundef %34, ptr noundef %35)
  store i32 %36, ptr %6, align 4
  call void @llvm.lifetime.end.p0(i64 8, ptr %8) #7
  call void @llvm.lifetime.end.p0(i64 8, ptr %7) #7
  br label %47

37:                                               ; preds = %2
  %38 = load ptr, ptr %3, align 8
  %39 = call ptr @dataLeafPageGetUncompressed(ptr noundef %38, ptr noundef %6)
  store ptr %39, ptr %5, align 8
  %40 = load i32, ptr %6, align 4
  %41 = icmp sgt i32 %40, 0
  br i1 %41, label %42, label %46

42:                                               ; preds = %37
  %43 = load ptr, ptr %4, align 8
  %44 = load ptr, ptr %5, align 8
  %45 = load i32, ptr %6, align 4
  call void @tbm_add_tuples(ptr noundef %43, ptr noundef %44, i32 noundef %45, i1 noundef zeroext false)
  br label %46

46:                                               ; preds = %42, %37
  br label %47

47:                                               ; preds = %46, %22
  %48 = load i32, ptr %6, align 4
  call void @llvm.lifetime.end.p0(i64 4, ptr %6) #7
  call void @llvm.lifetime.end.p0(i64 8, ptr %5) #7
  ret i32 %48
}