; Function Attrs: nounwind uwtable
define dso_local i32 @GinDataLeafPageGetItemsToTbm(ptr noundef %0, ptr noundef %1) local_unnamed_addr #0 {
  %3 = getelementptr inbounds nuw i8, ptr %0, i64 16
  %4 = load i16, ptr %3, align 4
  %5 = zext i16 %4 to i64
  %6 = getelementptr inbounds nuw i8, ptr %0, i64 %5
  %7 = getelementptr inbounds nuw i8, ptr %6, i64 6
  %8 = load i16, ptr %7, align 2
  %9 = and i16 %8, 128
  %.not = icmp eq i16 %9, 0
  br i1 %.not, label %17, label %10

10:                                               ; preds = %2
  %11 = getelementptr inbounds nuw i8, ptr %0, i64 32
  %12 = getelementptr inbounds nuw i8, ptr %0, i64 12
  %13 = load i16, ptr %12, align 4
  %14 = zext i16 %13 to i32
  %15 = add nsw i32 %14, -32
  %16 = tail call i32 @ginPostingListDecodeAllSegmentsToTbm(ptr noundef nonnull %11, i32 noundef %15, ptr noundef %1) #11
  br label %23

17:                                               ; preds = %2
  %18 = getelementptr inbounds nuw i8, ptr %6, i64 4
  %19 = load i16, ptr %18, align 4
  %.not11 = icmp eq i16 %19, 0
  br i1 %.not11, label %23, label %20

20:                                               ; preds = %17
  %21 = zext i16 %19 to i32
  %22 = getelementptr inbounds nuw i8, ptr %0, i64 32
  tail call void @tbm_add_tuples(ptr noundef %1, ptr noundef nonnull %22, i32 noundef %21, i1 noundef zeroext false) #11
  br label %23

23:                                               ; preds = %17, %20, %10
  %.0 = phi i32 [ %21, %20 ], [ 0, %17 ], [ %16, %10 ]
  ret i32 %.0
}